; ModuleID = '15/156.c'
source_filename = "15/156.c"
target datalayout = "e-m:e-p270:32:32-p271:32:32-p272:64:64-i64:64-f80:128-n8:16:32:64-S128"
target triple = "x86_64-pc-linux-gnu"

@.str = private unnamed_addr constant [3 x i8] c"%d\00", align 1

; Function Attrs: noinline nounwind uwtable
define dso_local i32 @main(i32 %0, i8** %1) #0 {
  %3 = alloca i32, align 4
  %4 = alloca i32, align 4
  %5 = alloca i8**, align 8
  %6 = alloca [1000 x [1000 x i32]], align 16
  %7 = alloca i32, align 4
  %8 = alloca i32, align 4
  %9 = alloca i32, align 4
  %10 = alloca i32, align 4
  %11 = alloca i32, align 4
  %12 = alloca i32, align 4
  %13 = alloca i32, align 4
  %14 = alloca i32, align 4
  %15 = alloca i32, align 4
  %16 = alloca i32, align 4
  %17 = alloca i32, align 4
  %18 = alloca i32, align 4
  store i32 0, i32* %3, align 4
  store i32 %0, i32* %4, align 4
  store i8** %1, i8*** %5, align 8
  %19 = call i32 (i8*, ...) @__isoc99_scanf(i8* getelementptr inbounds ([3 x i8], [3 x i8]* @.str, i64 0, i64 0), i32* %7)
  store i32 0, i32* %10, align 4
  store i32 0, i32* %11, align 4
  store i32 0, i32* %12, align 4
  store i32 0, i32* %8, align 4
  br label %20

20:                                               ; preds = %42, %2
  %21 = load i32, i32* %8, align 4
  %22 = load i32, i32* %7, align 4
  %23 = icmp slt i32 %21, %22
  br i1 %23, label %24, label %45

24:                                               ; preds = %20
  store i32 0, i32* %9, align 4
  br label %25

25:                                               ; preds = %38, %24
  %26 = load i32, i32* %9, align 4
  %27 = load i32, i32* %7, align 4
  %28 = icmp slt i32 %26, %27
  br i1 %28, label %29, label %41

29:                                               ; preds = %25
  %30 = call i32 (i8*, ...) @__isoc99_scanf(i8* getelementptr inbounds ([3 x i8], [3 x i8]* @.str, i64 0, i64 0), i32* %16)
  %31 = load i32, i32* %16, align 4
  %32 = load i32, i32* %8, align 4
  %33 = sext i32 %32 to i64
  %34 = getelementptr inbounds [1000 x [1000 x i32]], [1000 x [1000 x i32]]* %6, i64 0, i64 %33
  %35 = load i32, i32* %9, align 4
  %36 = sext i32 %35 to i64
  %37 = getelementptr inbounds [1000 x i32], [1000 x i32]* %34, i64 0, i64 %36
  store i32 %31, i32* %37, align 4
  br label %38

38:                                               ; preds = %29
  %39 = load i32, i32* %9, align 4
  %40 = add nsw i32 %39, 1
  store i32 %40, i32* %9, align 4
  br label %25

41:                                               ; preds = %25
  br label %42

42:                                               ; preds = %41
  %43 = load i32, i32* %8, align 4
  %44 = add nsw i32 %43, 1
  store i32 %44, i32* %8, align 4
  br label %20

45:                                               ; preds = %20
  store i32 0, i32* %17, align 4
  br label %46

46:                                               ; preds = %160, %45
  %47 = load i32, i32* %17, align 4
  %48 = load i32, i32* %7, align 4
  %49 = icmp slt i32 %47, %48
  br i1 %49, label %50, label %163

50:                                               ; preds = %46
  %51 = load i32, i32* %17, align 4
  %52 = sext i32 %51 to i64
  %53 = getelementptr inbounds [1000 x [1000 x i32]], [1000 x [1000 x i32]]* %6, i64 0, i64 %52
  %54 = getelementptr inbounds [1000 x i32], [1000 x i32]* %53, i64 0, i64 0
  %55 = load i32, i32* %54, align 16
  %56 = icmp ne i32 %55, 0
  br i1 %56, label %57, label %108

57:                                               ; preds = %50
  store i32 1, i32* %18, align 4
  br label %58

58:                                               ; preds = %95, %57
  %59 = load i32, i32* %18, align 4
  %60 = load i32, i32* %7, align 4
  %61 = icmp slt i32 %59, %60
  br i1 %61, label %62, label %98

62:                                               ; preds = %58
  %63 = load i32, i32* %17, align 4
  %64 = sext i32 %63 to i64
  %65 = getelementptr inbounds [1000 x [1000 x i32]], [1000 x [1000 x i32]]* %6, i64 0, i64 %64
  %66 = load i32, i32* %18, align 4
  %67 = sext i32 %66 to i64
  %68 = getelementptr inbounds [1000 x i32], [1000 x i32]* %65, i64 0, i64 %67
  %69 = load i32, i32* %68, align 4
  %70 = icmp eq i32 %69, 0
  br i1 %70, label %71, label %74

71:                                               ; preds = %62
  %72 = load i32, i32* %10, align 4
  %73 = add nsw i32 %72, 1
  store i32 %73, i32* %10, align 4
  br label %74

74:                                               ; preds = %71, %62
  %75 = load i32, i32* %17, align 4
  %76 = sext i32 %75 to i64
  %77 = getelementptr inbounds [1000 x [1000 x i32]], [1000 x [1000 x i32]]* %6, i64 0, i64 %76
  %78 = load i32, i32* %18, align 4
  %79 = sext i32 %78 to i64
  %80 = getelementptr inbounds [1000 x i32], [1000 x i32]* %77, i64 0, i64 %79
  %81 = load i32, i32* %80, align 4
  %82 = load i32, i32* %17, align 4
  %83 = sext i32 %82 to i64
  %84 = getelementptr inbounds [1000 x [1000 x i32]], [1000 x [1000 x i32]]* %6, i64 0, i64 %83
  %85 = load i32, i32* %18, align 4
  %86 = sub nsw i32 %85, 1
  %87 = sext i32 %86 to i64
  %88 = getelementptr inbounds [1000 x i32], [1000 x i32]* %84, i64 0, i64 %87
  %89 = load i32, i32* %88, align 4
  %90 = icmp ne i32 %81, %89
  br i1 %90, label %91, label %94

91:                                               ; preds = %74
  %92 = load i32, i32* %11, align 4
  %93 = add nsw i32 %92, 1
  store i32 %93, i32* %11, align 4
  br label %94

94:                                               ; preds = %91, %74
  br label %95

95:                                               ; preds = %94
  %96 = load i32, i32* %18, align 4
  %97 = add nsw i32 %96, 1
  store i32 %97, i32* %18, align 4
  br label %58

98:                                               ; preds = %58
  %99 = load i32, i32* %11, align 4
  %100 = sub nsw i32 %99, 4
  %101 = sdiv i32 %100, 4
  store i32 %101, i32* %14, align 4
  %102 = load i32, i32* %10, align 4
  %103 = load i32, i32* %14, align 4
  %104 = mul nsw i32 2, %103
  %105 = sub nsw i32 %102, %104
  %106 = sub nsw i32 %105, 4
  %107 = sdiv i32 %106, 2
  store i32 %107, i32* %13, align 4
  br label %159

108:                                              ; preds = %50
  store i32 0, i32* %18, align 4
  br label %109

109:                                              ; preds = %146, %108
  %110 = load i32, i32* %18, align 4
  %111 = load i32, i32* %7, align 4
  %112 = icmp slt i32 %110, %111
  br i1 %112, label %113, label %149

113:                                              ; preds = %109
  %114 = load i32, i32* %17, align 4
  %115 = sext i32 %114 to i64
  %116 = getelementptr inbounds [1000 x [1000 x i32]], [1000 x [1000 x i32]]* %6, i64 0, i64 %115
  %117 = load i32, i32* %18, align 4
  %118 = sext i32 %117 to i64
  %119 = getelementptr inbounds [1000 x i32], [1000 x i32]* %116, i64 0, i64 %118
  %120 = load i32, i32* %119, align 4
  %121 = icmp eq i32 %120, 0
  br i1 %121, label %122, label %125

122:                                              ; preds = %113
  %123 = load i32, i32* %10, align 4
  %124 = add nsw i32 %123, 1
  store i32 %124, i32* %10, align 4
  br label %125

125:                                              ; preds = %122, %113
  %126 = load i32, i32* %17, align 4
  %127 = sext i32 %126 to i64
  %128 = getelementptr inbounds [1000 x [1000 x i32]], [1000 x [1000 x i32]]* %6, i64 0, i64 %127
  %129 = load i32, i32* %18, align 4
  %130 = sext i32 %129 to i64
  %131 = getelementptr inbounds [1000 x i32], [1000 x i32]* %128, i64 0, i64 %130
  %132 = load i32, i32* %131, align 4
  %133 = load i32, i32* %17, align 4
  %134 = sext i32 %133 to i64
  %135 = getelementptr inbounds [1000 x [1000 x i32]], [1000 x [1000 x i32]]* %6, i64 0, i64 %134
  %136 = load i32, i32* %18, align 4
  %137 = add nsw i32 %136, 1
  %138 = sext i32 %137 to i64
  %139 = getelementptr inbounds [1000 x i32], [1000 x i32]* %135, i64 0, i64 %138
  %140 = load i32, i32* %139, align 4
  %141 = icmp ne i32 %132, %140
  br i1 %141, label %142, label %145

142:                                              ; preds = %125
  %143 = load i32, i32* %11, align 4
  %144 = add nsw i32 %143, 1
  store i32 %144, i32* %11, align 4
  br label %145

145:                                              ; preds = %142, %125
  br label %146

146:                                              ; preds = %145
  %147 = load i32, i32* %18, align 4
  %148 = add nsw i32 %147, 1
  store i32 %148, i32* %18, align 4
  br label %109

149:                                              ; preds = %109
  %150 = load i32, i32* %11, align 4
  %151 = sub nsw i32 %150, 4
  %152 = sdiv i32 %151, 3
  store i32 %152, i32* %14, align 4
  %153 = load i32, i32* %10, align 4
  %154 = load i32, i32* %14, align 4
  %155 = mul nsw i32 2, %154
  %156 = sub nsw i32 %153, %155
  %157 = sub nsw i32 %156, 4
  %158 = sdiv i32 %157, 2
  store i32 %158, i32* %13, align 4
  br label %159

159:                                              ; preds = %149, %98
  br label %160

160:                                              ; preds = %159
  %161 = load i32, i32* %17, align 4
  %162 = add nsw i32 %161, 1
  store i32 %162, i32* %17, align 4
  br label %46

163:                                              ; preds = %46
  %164 = load i32, i32* %14, align 4
  %165 = load i32, i32* %13, align 4
  %166 = mul nsw i32 %164, %165
  store i32 %166, i32* %15, align 4
  %167 = load i32, i32* %15, align 4
  %168 = call i32 (i8*, ...) @printf(i8* getelementptr inbounds ([3 x i8], [3 x i8]* @.str, i64 0, i64 0), i32 %167)
  ret i32 0
}

declare dso_local i32 @__isoc99_scanf(i8*, ...) #1

declare dso_local i32 @printf(i8*, ...) #1


!llvm.module.flags = !{!0}
!llvm.ident = !{!1}

!0 = !{i32 1, !"wchar_size", i32 4}
!1 = !{!"clang version 10.0.0-4ubuntu1 "}
